; Function Attrs: nounwind uwtable
define hidden void @png_chunk_benign_error(ptr noalias noundef %0, ptr noundef %1) local_unnamed_addr #3 {
  %3 = getelementptr inbounds i8, ptr %0, i64 296
  %4 = load i32, ptr %3, align 8
  %5 = and i32 %4, 1048576
  %.not = icmp eq i32 %5, 0
  br i1 %.not, label %7, label %6

6:                                                ; preds = %2
  tail call void @png_chunk_warning(ptr noundef nonnull %0, ptr noundef %1)
  ret void

7:                                                ; preds = %2
  tail call void @png_chunk_error(ptr noundef nonnull %0, ptr noundef %1) #18
  unreachable
}